target datalayout = "e-m:e-p270:32:32-p271:32:32-p272:64:64-i64:64-i128:128-f80:128-n8:16:32:64-S128"
target triple = "x86_64-pc-linux-gnu"

%struct.ToastTupleContext = type { ptr, ptr, ptr, ptr, ptr, i8, ptr }
%struct.ToastAttrInfo = type { ptr, i32, i8, i8 }
%struct.anon = type { i32, [0 x i8] }

; Function Attrs: inlinehint nounwind uwtable
define internal ptr @DatumGetPointer(i64 noundef %0) #2 {
  %2 = alloca i64, align 8
  store i64 %0, ptr %2, align 8
  %3 = load i64, ptr %2, align 8
  %4 = inttoptr i64 %3 to ptr
  ret ptr %4
}

; Function Attrs: nounwind uwtable
define dso_local void @toast_tuple_try_compression(ptr noundef %0, i32 noundef %1) #0 {
  %3 = alloca ptr, align 8
  %4 = alloca i32, align 4
  %5 = alloca ptr, align 8
  %6 = alloca i64, align 8
  %7 = alloca ptr, align 8
  store ptr %0, ptr %3, align 8
  store i32 %1, ptr %4, align 4
  call void @llvm.lifetime.start.p0(i64 8, ptr %5) #5
  %8 = load ptr, ptr %3, align 8
  %9 = getelementptr inbounds nuw %struct.ToastTupleContext, ptr %8, i32 0, i32 1
  %10 = load ptr, ptr %9, align 8
  %11 = load i32, ptr %4, align 4
  %12 = sext i32 %11 to i64
  %13 = getelementptr inbounds i64, ptr %10, i64 %12
  store ptr %13, ptr %5, align 8
  call void @llvm.lifetime.start.p0(i64 8, ptr %6) #5
  call void @llvm.lifetime.start.p0(i64 8, ptr %7) #5
  %14 = load ptr, ptr %3, align 8
  %15 = getelementptr inbounds nuw %struct.ToastTupleContext, ptr %14, i32 0, i32 6
  %16 = load ptr, ptr %15, align 8
  %17 = load i32, ptr %4, align 4
  %18 = sext i32 %17 to i64
  %19 = getelementptr inbounds %struct.ToastAttrInfo, ptr %16, i64 %18
  store ptr %19, ptr %7, align 8
  %20 = load ptr, ptr %5, align 8
  %21 = load i64, ptr %20, align 8
  %22 = load ptr, ptr %7, align 8
  %23 = getelementptr inbounds nuw %struct.ToastAttrInfo, ptr %22, i32 0, i32 3
  %24 = load i8, ptr %23, align 1
  %25 = call i64 @toast_compress_datum(i64 noundef %21, i8 noundef signext %24)
  store i64 %25, ptr %6, align 8
  %26 = load i64, ptr %6, align 8
  %27 = call ptr @DatumGetPointer(i64 noundef %26)
  %28 = icmp ne ptr %27, null
  br i1 %28, label %29, label %64

29:                                               ; preds = %2
  %30 = load ptr, ptr %7, align 8
  %31 = getelementptr inbounds nuw %struct.ToastAttrInfo, ptr %30, i32 0, i32 2
  %32 = load i8, ptr %31, align 4
  %33 = zext i8 %32 to i32
  %34 = and i32 %33, 2
  %35 = icmp ne i32 %34, 0
  br i1 %35, label %36, label %40

36:                                               ; preds = %29
  %37 = load ptr, ptr %5, align 8
  %38 = load i64, ptr %37, align 8
  %39 = call ptr @DatumGetPointer(i64 noundef %38)
  call void @pfree(ptr noundef %39)
  br label %40

40:                                               ; preds = %36, %29
  %41 = load i64, ptr %6, align 8
  %42 = load ptr, ptr %5, align 8
  store i64 %41, ptr %42, align 8
  %43 = load ptr, ptr %7, align 8
  %44 = getelementptr inbounds nuw %struct.ToastAttrInfo, ptr %43, i32 0, i32 2
  %45 = load i8, ptr %44, align 4
  %46 = zext i8 %45 to i32
  %47 = or i32 %46, 2
  %48 = trunc i32 %47 to i8
  store i8 %48, ptr %44, align 4
  %49 = load ptr, ptr %5, align 8
  %50 = load i64, ptr %49, align 8
  %51 = call ptr @DatumGetPointer(i64 noundef %50)
  %52 = getelementptr inbounds nuw %struct.anon, ptr %51, i32 0, i32 0
  %53 = load i32, ptr %52, align 4
  %54 = lshr i32 %53, 2
  %55 = and i32 %54, 1073741823
  %56 = load ptr, ptr %7, align 8
  %57 = getelementptr inbounds nuw %struct.ToastAttrInfo, ptr %56, i32 0, i32 1
  store i32 %55, ptr %57, align 8
  %58 = load ptr, ptr %3, align 8
  %59 = getelementptr inbounds nuw %struct.ToastTupleContext, ptr %58, i32 0, i32 5
  %60 = load i8, ptr %59, align 8
  %61 = zext i8 %60 to i32
  %62 = or i32 %61, 10
  %63 = trunc i32 %62 to i8
  store i8 %63, ptr %59, align 8
  br label %71

64:                                               ; preds = %2
  %65 = load ptr, ptr %7, align 8
  %66 = getelementptr inbounds nuw %struct.ToastAttrInfo, ptr %65, i32 0, i32 2
  %67 = load i8, ptr %66, align 4
  %68 = zext i8 %67 to i32
  %69 = or i32 %68, 32
  %70 = trunc i32 %69 to i8
  store i8 %70, ptr %66, align 4
  br label %71

71:                                               ; preds = %64, %40
  call void @llvm.lifetime.end.p0(i64 8, ptr %7) #5
  call void @llvm.lifetime.end.p0(i64 8, ptr %6) #5
  call void @llvm.lifetime.end.p0(i64 8, ptr %5) #5
  ret void
}