; Function Attrs: nounwind uwtable
define dso_local void @toast_tuple_try_compression(ptr noundef captures(none) %0, i32 noundef %1) local_unnamed_addr #0 {
  %3 = getelementptr inbounds nuw i8, ptr %0, i64 8
  %4 = load ptr, ptr %3, align 8
  %5 = sext i32 %1 to i64
  %6 = getelementptr inbounds i64, ptr %4, i64 %5
  %7 = getelementptr inbounds nuw i8, ptr %0, i64 48
  %8 = load ptr, ptr %7, align 8
  %9 = getelementptr inbounds %struct.ToastAttrInfo, ptr %8, i64 %5
  %10 = load i64, ptr %6, align 8
  %11 = getelementptr inbounds nuw i8, ptr %9, i64 13
  %12 = load i8, ptr %11, align 1
  %13 = tail call i64 @toast_compress_datum(i64 noundef %10, i8 noundef signext %12) #5
  %.not = icmp eq i64 %13, 0
  %14 = getelementptr inbounds nuw i8, ptr %9, i64 12
  %15 = load i8, ptr %14, align 4
  br i1 %.not, label %32, label %16

16:                                               ; preds = %2
  %17 = and i8 %15, 2
  %.not15 = icmp eq i8 %17, 0
  br i1 %.not15, label %21, label %18

18:                                               ; preds = %16
  %19 = load i64, ptr %6, align 8
  %20 = inttoptr i64 %19 to ptr
  tail call void @pfree(ptr noundef %20) #5
  br label %21

21:                                               ; preds = %18, %16
  store i64 %13, ptr %6, align 8
  %22 = load i8, ptr %14, align 4
  %23 = or i8 %22, 2
  store i8 %23, ptr %14, align 4
  %24 = load i64, ptr %6, align 8
  %25 = inttoptr i64 %24 to ptr
  %26 = load i32, ptr %25, align 4
  %27 = lshr i32 %26, 2
  %28 = getelementptr inbounds nuw i8, ptr %9, i64 8
  store i32 %27, ptr %28, align 8
  %29 = getelementptr inbounds nuw i8, ptr %0, i64 40
  %30 = load i8, ptr %29, align 8
  %31 = or i8 %30, 10
  store i8 %31, ptr %29, align 8
  br label %34

32:                                               ; preds = %2
  %33 = or i8 %15, 32
  store i8 %33, ptr %14, align 4
  br label %34

34:                                               ; preds = %32, %21
  ret void
}